target datalayout = "e-m:e-p270:32:32-p271:32:32-p272:64:64-i64:64-i128:128-f80:128-n8:16:32:64-S128"
target triple = "x86_64-pc-linux-gnu"

%struct.t_block = type { i32, ptr, i32 }

@.str.4 = private unnamed_addr constant [30 x i8] c"block->index[%d] should be 0\0A\00", align 1
@.str.5 = private unnamed_addr constant [11 x i8] c"%s[%d]={}\0A\00", align 1
@.str.6 = private unnamed_addr constant [17 x i8] c"%s[%d]={%d..%d}\0A\00", align 1
@.str.7 = private unnamed_addr constant [7 x i8] c"nr=%d\0A\00", align 1

; Function Attrs: mustprogress uwtable
define internal noundef i32 @_ZL14pr_block_titleP8_IO_FILEiPKcPK7t_block(ptr noundef %0, i32 noundef %1, ptr noundef %2, ptr noundef %3) #0 {
  %5 = alloca ptr, align 8
  %6 = alloca i32, align 4
  %7 = alloca ptr, align 8
  %8 = alloca ptr, align 8
  store ptr %0, ptr %5, align 8, !tbaa !39
  store i32 %1, ptr %6, align 4, !tbaa !15
  store ptr %2, ptr %7, align 8, !tbaa !16
  store ptr %3, ptr %8, align 8, !tbaa !4
  %9 = load ptr, ptr %5, align 8, !tbaa !39
  %10 = load ptr, ptr %8, align 8, !tbaa !4
  %11 = load i32, ptr %6, align 4, !tbaa !15
  %12 = load ptr, ptr %7, align 8, !tbaa !16
  %13 = call noundef zeroext i1 @_Z9availableP8_IO_FILEPKviPKc(ptr noundef %9, ptr noundef %10, i32 noundef %11, ptr noundef %12)
  br i1 %13, label %14, label %27

14:                                               ; preds = %4
  %15 = load ptr, ptr %5, align 8, !tbaa !39
  %16 = load i32, ptr %6, align 4, !tbaa !15
  %17 = load ptr, ptr %7, align 8, !tbaa !16
  %18 = call noundef i32 @_Z8pr_titleP8_IO_FILEiPKc(ptr noundef %15, i32 noundef %16, ptr noundef %17)
  store i32 %18, ptr %6, align 4, !tbaa !15
  %19 = load ptr, ptr %5, align 8, !tbaa !39
  %20 = load i32, ptr %6, align 4, !tbaa !15
  %21 = call noundef i32 @_Z9pr_indentP8_IO_FILEi(ptr noundef %19, i32 noundef %20)
  %22 = load ptr, ptr %5, align 8, !tbaa !39
  %23 = load ptr, ptr %8, align 8, !tbaa !4
  %24 = getelementptr inbounds nuw %struct.t_block, ptr %23, i32 0, i32 0
  %25 = load i32, ptr %24, align 8, !tbaa !9
  %26 = call i32 (ptr, ptr, ...) @fprintf(ptr noundef %22, ptr noundef @.str.7, i32 noundef %25) #8
  br label %27

27:                                               ; preds = %14, %4
  %28 = load i32, ptr %6, align 4, !tbaa !15
  ret i32 %28
}

; Function Attrs: mustprogress uwtable
define void @_Z8pr_blockP8_IO_FILEiPKcPK7t_blockb(ptr noundef %0, i32 noundef %1, ptr noundef %2, ptr noundef %3, i1 noundef zeroext %4) #0 {
  %6 = alloca ptr, align 8
  %7 = alloca i32, align 4
  %8 = alloca ptr, align 8
  %9 = alloca ptr, align 8
  %10 = alloca i8, align 1
  %11 = alloca i32, align 4
  %12 = alloca i32, align 4
  %13 = alloca i32, align 4
  store ptr %0, ptr %6, align 8, !tbaa !39
  store i32 %1, ptr %7, align 4, !tbaa !15
  store ptr %2, ptr %8, align 8, !tbaa !16
  store ptr %3, ptr %9, align 8, !tbaa !4
  %14 = zext i1 %4 to i8
  store i8 %14, ptr %10, align 1, !tbaa !33
  %15 = load ptr, ptr %6, align 8, !tbaa !39
  %16 = load ptr, ptr %9, align 8, !tbaa !4
  %17 = load i32, ptr %7, align 4, !tbaa !15
  %18 = load ptr, ptr %8, align 8, !tbaa !16
  %19 = call noundef zeroext i1 @_Z9availableP8_IO_FILEPKviPKc(ptr noundef %15, ptr noundef %16, i32 noundef %17, ptr noundef %18)
  br i1 %19, label %20, label %99

20:                                               ; preds = %5
  %21 = load ptr, ptr %6, align 8, !tbaa !39
  %22 = load i32, ptr %7, align 4, !tbaa !15
  %23 = load ptr, ptr %8, align 8, !tbaa !16
  %24 = load ptr, ptr %9, align 8, !tbaa !4
  %25 = call noundef i32 @_ZL14pr_block_titleP8_IO_FILEiPKcPK7t_block(ptr noundef %21, i32 noundef %22, ptr noundef %23, ptr noundef %24)
  store i32 %25, ptr %7, align 4, !tbaa !15
  call void @llvm.lifetime.start.p0(i64 4, ptr %11) #8
  store i32 0, ptr %11, align 4, !tbaa !15
  %26 = load ptr, ptr %9, align 8, !tbaa !4
  %27 = getelementptr inbounds nuw %struct.t_block, ptr %26, i32 0, i32 1
  %28 = load ptr, ptr %27, align 8, !tbaa !14
  %29 = load i32, ptr %11, align 4, !tbaa !15
  %30 = sext i32 %29 to i64
  %31 = getelementptr inbounds i32, ptr %28, i64 %30
  %32 = load i32, ptr %31, align 4, !tbaa !15
  %33 = icmp ne i32 %32, 0
  br i1 %33, label %34, label %38

34:                                               ; preds = %20
  %35 = load ptr, ptr %6, align 8, !tbaa !39
  %36 = load i32, ptr %11, align 4, !tbaa !15
  %37 = call i32 (ptr, ptr, ...) @fprintf(ptr noundef %35, ptr noundef @.str.4, i32 noundef %36) #8
  br label %98

38:                                               ; preds = %20
  call void @llvm.lifetime.start.p0(i64 4, ptr %12) #8
  store i32 0, ptr %12, align 4, !tbaa !15
  br label %39

39:                                               ; preds = %94, %38
  %40 = load i32, ptr %12, align 4, !tbaa !15
  %41 = load ptr, ptr %9, align 8, !tbaa !4
  %42 = getelementptr inbounds nuw %struct.t_block, ptr %41, i32 0, i32 0
  %43 = load i32, ptr %42, align 8, !tbaa !9
  %44 = icmp slt i32 %40, %43
  br i1 %44, label %46, label %45

45:                                               ; preds = %39
  call void @llvm.lifetime.end.p0(i64 4, ptr %12) #8
  br label %97

46:                                               ; preds = %39
  call void @llvm.lifetime.start.p0(i64 4, ptr %13) #8
  %47 = load ptr, ptr %9, align 8, !tbaa !4
  %48 = getelementptr inbounds nuw %struct.t_block, ptr %47, i32 0, i32 1
  %49 = load ptr, ptr %48, align 8, !tbaa !14
  %50 = load i32, ptr %12, align 4, !tbaa !15
  %51 = add nsw i32 %50, 1
  %52 = sext i32 %51 to i64
  %53 = getelementptr inbounds i32, ptr %49, i64 %52
  %54 = load i32, ptr %53, align 4, !tbaa !15
  store i32 %54, ptr %13, align 4, !tbaa !15
  %55 = load ptr, ptr %6, align 8, !tbaa !39
  %56 = load i32, ptr %7, align 4, !tbaa !15
  %57 = call noundef i32 @_Z9pr_indentP8_IO_FILEi(ptr noundef %55, i32 noundef %56)
  %58 = load i32, ptr %13, align 4, !tbaa !15
  %59 = load i32, ptr %11, align 4, !tbaa !15
  %60 = icmp sle i32 %58, %59
  br i1 %60, label %61, label %66

61:                                               ; preds = %46
  %62 = load ptr, ptr %6, align 8, !tbaa !39
  %63 = load ptr, ptr %8, align 8, !tbaa !16
  %64 = load i32, ptr %12, align 4, !tbaa !15
  %65 = call i32 (ptr, ptr, ...) @fprintf(ptr noundef %62, ptr noundef @.str.5, ptr noundef %63, i32 noundef %64) #8
  br label %92

66:                                               ; preds = %46
  %67 = load ptr, ptr %6, align 8, !tbaa !39
  %68 = load ptr, ptr %8, align 8, !tbaa !16
  %69 = load i8, ptr %10, align 1, !tbaa !33, !range !35, !noundef !36
  %70 = trunc i8 %69 to i1
  br i1 %70, label %71, label %73

71:                                               ; preds = %66
  %72 = load i32, ptr %12, align 4, !tbaa !15
  br label %74

73:                                               ; preds = %66
  br label %74

74:                                               ; preds = %73, %71
  %75 = phi i32 [ %72, %71 ], [ -1, %73 ]
  %76 = load i8, ptr %10, align 1, !tbaa !33, !range !35, !noundef !36
  %77 = trunc i8 %76 to i1
  br i1 %77, label %78, label %80

78:                                               ; preds = %74
  %79 = load i32, ptr %11, align 4, !tbaa !15
  br label %81

80:                                               ; preds = %74
  br label %81

81:                                               ; preds = %80, %78
  %82 = phi i32 [ %79, %78 ], [ -1, %80 ]
  %83 = load i8, ptr %10, align 1, !tbaa !33, !range !35, !noundef !36
  %84 = trunc i8 %83 to i1
  br i1 %84, label %85, label %88

85:                                               ; preds = %81
  %86 = load i32, ptr %13, align 4, !tbaa !15
  %87 = sub nsw i32 %86, 1
  br label %89

88:                                               ; preds = %81
  br label %89

89:                                               ; preds = %88, %85
  %90 = phi i32 [ %87, %85 ], [ -1, %88 ]
  %91 = call i32 (ptr, ptr, ...) @fprintf(ptr noundef %67, ptr noundef @.str.6, ptr noundef %68, i32 noundef %75, i32 noundef %82, i32 noundef %90) #8
  br label %92

92:                                               ; preds = %89, %61
  %93 = load i32, ptr %13, align 4, !tbaa !15
  store i32 %93, ptr %11, align 4, !tbaa !15
  call void @llvm.lifetime.end.p0(i64 4, ptr %13) #8
  br label %94

94:                                               ; preds = %92
  %95 = load i32, ptr %12, align 4, !tbaa !15
  %96 = add nsw i32 %95, 1
  store i32 %96, ptr %12, align 4, !tbaa !15
  br label %39, !llvm.loop !41

97:                                               ; preds = %45
  br label %98

98:                                               ; preds = %97, %34
  call void @llvm.lifetime.end.p0(i64 4, ptr %11) #8
  br label %99

99:                                               ; preds = %98, %5
  ret void
}