; Function Attrs: mustprogress uwtable
define void @_Z8pr_blockP8_IO_FILEiPKcPK7t_blockb(ptr noundef %0, i32 noundef %1, ptr noundef %2, ptr noundef %3, i1 noundef zeroext %4) local_unnamed_addr #0 {
  %6 = tail call noundef zeroext i1 @_Z9availableP8_IO_FILEPKviPKc(ptr noundef %0, ptr noundef %3, i32 noundef %1, ptr noundef %2)
  br i1 %6, label %7, label %.loopexit

7:                                                ; preds = %5
  %8 = tail call noundef zeroext i1 @_Z9availableP8_IO_FILEPKviPKc(ptr noundef %0, ptr noundef %3, i32 noundef %1, ptr noundef %2)
  br i1 %8, label %9, label %_ZL14pr_block_titleP8_IO_FILEiPKcPK7t_block.exit

9:                                                ; preds = %7
  %10 = tail call noundef i32 @_Z8pr_titleP8_IO_FILEiPKc(ptr noundef %0, i32 noundef %1, ptr noundef %2)
  %11 = tail call noundef i32 @_Z9pr_indentP8_IO_FILEi(ptr noundef %0, i32 noundef %10)
  %12 = load i32, ptr %3, align 8, !tbaa !4
  %13 = tail call i32 (ptr, ptr, ...) @fprintf(ptr noundef %0, ptr noundef nonnull @.str.7, i32 noundef %12) #6
  br label %_ZL14pr_block_titleP8_IO_FILEiPKcPK7t_block.exit

_ZL14pr_block_titleP8_IO_FILEiPKcPK7t_block.exit: ; preds = %7, %9
  %.0.i = phi i32 [ %10, %9 ], [ %1, %7 ]
  %14 = getelementptr inbounds nuw i8, ptr %3, i64 8
  %15 = load ptr, ptr %14, align 8, !tbaa !20
  %16 = load i32, ptr %15, align 4, !tbaa !13
  %.not = icmp eq i32 %16, 0
  br i1 %.not, label %.preheader, label %34

.preheader:                                       ; preds = %_ZL14pr_block_titleP8_IO_FILEiPKcPK7t_block.exit
  %17 = load i32, ptr %3, align 8, !tbaa !4
  %18 = icmp sgt i32 %17, 0
  br i1 %18, label %.lr.ph, label %.loopexit

.lr.ph:                                           ; preds = %.preheader
  br i1 %4, label %.lr.ph.split.us, label %.lr.ph.split

.lr.ph.split.us:                                  ; preds = %.lr.ph, %30
  %indvars.iv39 = phi i64 [ %indvars.iv.next40, %30 ], [ 0, %.lr.ph ]
  %.03235.us = phi i32 [ %21, %30 ], [ 0, %.lr.ph ]
  %19 = load ptr, ptr %14, align 8, !tbaa !20
  %indvars.iv.next40 = add nuw nsw i64 %indvars.iv39, 1
  %20 = getelementptr inbounds nuw i32, ptr %19, i64 %indvars.iv.next40
  %21 = load i32, ptr %20, align 4, !tbaa !13
  %22 = tail call noundef i32 @_Z9pr_indentP8_IO_FILEi(ptr noundef %0, i32 noundef %.0.i)
  %.not34.us = icmp sgt i32 %21, %.03235.us
  br i1 %.not34.us, label %26, label %23

23:                                               ; preds = %.lr.ph.split.us
  %24 = trunc nuw nsw i64 %indvars.iv39 to i32
  %25 = tail call i32 (ptr, ptr, ...) @fprintf(ptr noundef %0, ptr noundef nonnull @.str.5, ptr noundef %2, i32 noundef %24) #6
  br label %30

26:                                               ; preds = %.lr.ph.split.us
  %27 = add nsw i32 %21, -1
  %28 = trunc nuw nsw i64 %indvars.iv39 to i32
  %29 = tail call i32 (ptr, ptr, ...) @fprintf(ptr noundef %0, ptr noundef nonnull @.str.6, ptr noundef %2, i32 noundef %28, i32 noundef %.03235.us, i32 noundef %27) #6
  br label %30

30:                                               ; preds = %26, %23
  %31 = load i32, ptr %3, align 8, !tbaa !4
  %32 = sext i32 %31 to i64
  %33 = icmp slt i64 %indvars.iv.next40, %32
  br i1 %33, label %.lr.ph.split.us, label %.loopexit, !llvm.loop !24

34:                                               ; preds = %_ZL14pr_block_titleP8_IO_FILEiPKcPK7t_block.exit
  %35 = tail call i32 (ptr, ptr, ...) @fprintf(ptr noundef %0, ptr noundef nonnull @.str.4, i32 noundef 0) #6
  br label %.loopexit

.lr.ph.split:                                     ; preds = %.lr.ph, %45
  %indvars.iv = phi i64 [ %indvars.iv.next, %45 ], [ 0, %.lr.ph ]
  %.03235 = phi i32 [ %38, %45 ], [ 0, %.lr.ph ]
  %36 = load ptr, ptr %14, align 8, !tbaa !20
  %indvars.iv.next = add nuw nsw i64 %indvars.iv, 1
  %37 = getelementptr inbounds nuw i32, ptr %36, i64 %indvars.iv.next
  %38 = load i32, ptr %37, align 4, !tbaa !13
  %39 = tail call noundef i32 @_Z9pr_indentP8_IO_FILEi(ptr noundef %0, i32 noundef %.0.i)
  %.not34 = icmp sgt i32 %38, %.03235
  br i1 %.not34, label %43, label %40

40:                                               ; preds = %.lr.ph.split
  %41 = trunc nuw nsw i64 %indvars.iv to i32
  %42 = tail call i32 (ptr, ptr, ...) @fprintf(ptr noundef %0, ptr noundef nonnull @.str.5, ptr noundef %2, i32 noundef %41) #6
  br label %45

43:                                               ; preds = %.lr.ph.split
  %44 = tail call i32 (ptr, ptr, ...) @fprintf(ptr noundef %0, ptr noundef nonnull @.str.6, ptr noundef %2, i32 noundef -1, i32 noundef -1, i32 noundef -1) #6
  br label %45

45:                                               ; preds = %43, %40
  %46 = load i32, ptr %3, align 8, !tbaa !4
  %47 = sext i32 %46 to i64
  %48 = icmp slt i64 %indvars.iv.next, %47
  br i1 %48, label %.lr.ph.split, label %.loopexit, !llvm.loop !24

.loopexit:                                        ; preds = %45, %30, %.preheader, %34, %5
  ret void
}